target datalayout = "e-m:e-p270:32:32-p271:32:32-p272:64:64-i64:64-i128:128-f80:128-n8:16:32:64-S128"
target triple = "x86_64-pc-linux-gnu"

%struct.quicklist = type { ptr, ptr, i64, i64, i64, [0 x %struct.quicklistBookmark] }
%struct.quicklistBookmark = type { ptr, ptr }
%struct.quicklistNode = type { ptr, ptr, ptr, i64, i32 }

; Function Attrs: nounwind uwtable
define dso_local i32 @quicklistDelIndex(ptr noundef %0, ptr noundef %1, ptr noundef %2) #0 {
  %4 = alloca i32, align 4
  %5 = alloca ptr, align 8
  %6 = alloca ptr, align 8
  %7 = alloca ptr, align 8
  %8 = alloca i32, align 4
  %9 = alloca i32, align 4
  store ptr %0, ptr %5, align 8, !tbaa !9
  store ptr %1, ptr %6, align 8, !tbaa !12
  store ptr %2, ptr %7, align 8, !tbaa !40
  call void @llvm.lifetime.start.p0(i64 4, ptr %8) #10
  store i32 0, ptr %8, align 4, !tbaa !14
  %10 = load ptr, ptr %6, align 8, !tbaa !12
  %11 = getelementptr inbounds nuw %struct.quicklistNode, ptr %10, i32 0, i32 4
  %12 = load i32, ptr %11, align 8
  %13 = lshr i32 %12, 18
  %14 = and i32 %13, 3
  %15 = icmp eq i32 %14, 1
  %16 = xor i1 %15, true
  %17 = xor i1 %16, true
  %18 = zext i1 %17 to i32
  %19 = sext i32 %18 to i64
  %20 = call i64 @llvm.expect.i64(i64 %19, i64 0)
  %21 = icmp ne i64 %20, 0
  br i1 %21, label %22, label %25

22:                                               ; preds = %3
  %23 = load ptr, ptr %5, align 8, !tbaa !9
  %24 = load ptr, ptr %6, align 8, !tbaa !12
  call void @__quicklistDelNode(ptr noundef %23, ptr noundef %24)
  store i32 1, ptr %4, align 4
  store i32 1, ptr %9, align 4
  br label %70

25:                                               ; preds = %3
  %26 = load ptr, ptr %6, align 8, !tbaa !12
  %27 = getelementptr inbounds nuw %struct.quicklistNode, ptr %26, i32 0, i32 2
  %28 = load ptr, ptr %27, align 8, !tbaa !16
  %29 = load ptr, ptr %7, align 8, !tbaa !40
  %30 = load ptr, ptr %29, align 8, !tbaa !35
  %31 = load ptr, ptr %7, align 8, !tbaa !40
  %32 = call ptr @lpDelete(ptr noundef %28, ptr noundef %30, ptr noundef %31)
  %33 = load ptr, ptr %6, align 8, !tbaa !12
  %34 = getelementptr inbounds nuw %struct.quicklistNode, ptr %33, i32 0, i32 2
  store ptr %32, ptr %34, align 8, !tbaa !16
  %35 = load ptr, ptr %6, align 8, !tbaa !12
  %36 = getelementptr inbounds nuw %struct.quicklistNode, ptr %35, i32 0, i32 4
  %37 = load i32, ptr %36, align 8
  %38 = and i32 %37, 65535
  %39 = add i32 %38, -1
  %40 = load i32, ptr %36, align 8
  %41 = and i32 %39, 65535
  %42 = and i32 %40, -65536
  %43 = or i32 %42, %41
  store i32 %43, ptr %36, align 8
  %44 = load ptr, ptr %6, align 8, !tbaa !12
  %45 = getelementptr inbounds nuw %struct.quicklistNode, ptr %44, i32 0, i32 4
  %46 = load i32, ptr %45, align 8
  %47 = and i32 %46, 65535
  %48 = icmp eq i32 %47, 0
  br i1 %48, label %49, label %52

49:                                               ; preds = %25
  store i32 1, ptr %8, align 4, !tbaa !14
  %50 = load ptr, ptr %5, align 8, !tbaa !9
  %51 = load ptr, ptr %6, align 8, !tbaa !12
  call void @__quicklistDelNode(ptr noundef %50, ptr noundef %51)
  br label %62

52:                                               ; preds = %25
  br label %53

53:                                               ; preds = %52
  %54 = load ptr, ptr %6, align 8, !tbaa !12
  %55 = getelementptr inbounds nuw %struct.quicklistNode, ptr %54, i32 0, i32 2
  %56 = load ptr, ptr %55, align 8, !tbaa !16
  %57 = call i64 @lpBytes(ptr noundef %56)
  %58 = load ptr, ptr %6, align 8, !tbaa !12
  %59 = getelementptr inbounds nuw %struct.quicklistNode, ptr %58, i32 0, i32 3
  store i64 %57, ptr %59, align 8, !tbaa !19
  br label %60

60:                                               ; preds = %53
  br label %61

61:                                               ; preds = %60
  br label %62

62:                                               ; preds = %61, %49
  %63 = load ptr, ptr %5, align 8, !tbaa !9
  %64 = getelementptr inbounds nuw %struct.quicklist, ptr %63, i32 0, i32 2
  %65 = load i64, ptr %64, align 8, !tbaa !5
  %66 = add i64 %65, -1
  store i64 %66, ptr %64, align 8, !tbaa !5
  %67 = load i32, ptr %8, align 4, !tbaa !14
  %68 = icmp ne i32 %67, 0
  %69 = select i1 %68, i32 1, i32 0
  store i32 %69, ptr %4, align 4
  store i32 1, ptr %9, align 4
  br label %70

70:                                               ; preds = %62, %22
  call void @llvm.lifetime.end.p0(i64 4, ptr %8) #10
  %71 = load i32, ptr %4, align 4
  ret i32 %71
}

; Function Attrs: nounwind uwtable
define internal void @quicklistRotatePlain(ptr noundef %0) #0 {
  %2 = alloca ptr, align 8
  %3 = alloca ptr, align 8
  %4 = alloca ptr, align 8
  store ptr %0, ptr %2, align 8, !tbaa !9
  call void @llvm.lifetime.start.p0(i64 8, ptr %3) #10
  %5 = load ptr, ptr %2, align 8, !tbaa !9
  %6 = getelementptr inbounds nuw %struct.quicklist, ptr %5, i32 0, i32 1
  %7 = load ptr, ptr %6, align 8, !tbaa !12
  store ptr %7, ptr %3, align 8, !tbaa !12
  call void @llvm.lifetime.start.p0(i64 8, ptr %4) #10
  %8 = load ptr, ptr %2, align 8, !tbaa !9
  %9 = getelementptr inbounds nuw %struct.quicklist, ptr %8, i32 0, i32 1
  %10 = load ptr, ptr %9, align 8, !tbaa !12
  %11 = getelementptr inbounds nuw %struct.quicklistNode, ptr %10, i32 0, i32 0
  %12 = load ptr, ptr %11, align 8, !tbaa !20
  store ptr %12, ptr %4, align 8, !tbaa !12
  %13 = load ptr, ptr %3, align 8, !tbaa !12
  %14 = load ptr, ptr %2, align 8, !tbaa !9
  %15 = getelementptr inbounds nuw %struct.quicklist, ptr %14, i32 0, i32 0
  %16 = load ptr, ptr %15, align 8, !tbaa !12
  %17 = getelementptr inbounds nuw %struct.quicklistNode, ptr %16, i32 0, i32 0
  store ptr %13, ptr %17, align 8, !tbaa !20
  %18 = load ptr, ptr %4, align 8, !tbaa !12
  %19 = getelementptr inbounds nuw %struct.quicklistNode, ptr %18, i32 0, i32 1
  store ptr null, ptr %19, align 8, !tbaa !21
  %20 = load ptr, ptr %2, align 8, !tbaa !9
  %21 = getelementptr inbounds nuw %struct.quicklist, ptr %20, i32 0, i32 0
  %22 = load ptr, ptr %21, align 8, !tbaa !12
  %23 = load ptr, ptr %3, align 8, !tbaa !12
  %24 = getelementptr inbounds nuw %struct.quicklistNode, ptr %23, i32 0, i32 1
  store ptr %22, ptr %24, align 8, !tbaa !21
  %25 = load ptr, ptr %3, align 8, !tbaa !12
  %26 = getelementptr inbounds nuw %struct.quicklistNode, ptr %25, i32 0, i32 0
  store ptr null, ptr %26, align 8, !tbaa !20
  %27 = load ptr, ptr %3, align 8, !tbaa !12
  %28 = load ptr, ptr %2, align 8, !tbaa !9
  %29 = getelementptr inbounds nuw %struct.quicklist, ptr %28, i32 0, i32 0
  store ptr %27, ptr %29, align 8, !tbaa !12
  %30 = load ptr, ptr %4, align 8, !tbaa !12
  %31 = load ptr, ptr %2, align 8, !tbaa !9
  %32 = getelementptr inbounds nuw %struct.quicklist, ptr %31, i32 0, i32 1
  store ptr %30, ptr %32, align 8, !tbaa !12
  call void @llvm.lifetime.end.p0(i64 8, ptr %4) #10
  call void @llvm.lifetime.end.p0(i64 8, ptr %3) #10
  ret void
}

; Function Attrs: nounwind uwtable
define dso_local void @quicklistRotate(ptr noundef %0) #0 {
  %2 = alloca ptr, align 8
  %3 = alloca ptr, align 8
  %4 = alloca ptr, align 8
  %5 = alloca ptr, align 8
  %6 = alloca i64, align 8
  %7 = alloca i32, align 4
  %8 = alloca [32 x i8], align 16
  store ptr %0, ptr %2, align 8, !tbaa !9
  %9 = load ptr, ptr %2, align 8, !tbaa !9
  %10 = getelementptr inbounds nuw %struct.quicklist, ptr %9, i32 0, i32 2
  %11 = load i64, ptr %10, align 8, !tbaa !5
  %12 = icmp ule i64 %11, 1
  br i1 %12, label %13, label %14

13:                                               ; preds = %1
  br label %96

14:                                               ; preds = %1
  %15 = load ptr, ptr %2, align 8, !tbaa !9
  %16 = getelementptr inbounds nuw %struct.quicklist, ptr %15, i32 0, i32 1
  %17 = load ptr, ptr %16, align 8, !tbaa !12
  %18 = getelementptr inbounds nuw %struct.quicklistNode, ptr %17, i32 0, i32 4
  %19 = load i32, ptr %18, align 8
  %20 = lshr i32 %19, 18
  %21 = and i32 %20, 3
  %22 = icmp eq i32 %21, 1
  %23 = xor i1 %22, true
  %24 = xor i1 %23, true
  %25 = zext i1 %24 to i32
  %26 = sext i32 %25 to i64
  %27 = call i64 @llvm.expect.i64(i64 %26, i64 0)
  %28 = icmp ne i64 %27, 0
  br i1 %28, label %29, label %31

29:                                               ; preds = %14
  %30 = load ptr, ptr %2, align 8, !tbaa !9
  call void @quicklistRotatePlain(ptr noundef %30)
  br label %96

31:                                               ; preds = %14
  call void @llvm.lifetime.start.p0(i64 8, ptr %3) #10
  %32 = load ptr, ptr %2, align 8, !tbaa !9
  %33 = getelementptr inbounds nuw %struct.quicklist, ptr %32, i32 0, i32 1
  %34 = load ptr, ptr %33, align 8, !tbaa !12
  %35 = getelementptr inbounds nuw %struct.quicklistNode, ptr %34, i32 0, i32 2
  %36 = load ptr, ptr %35, align 8, !tbaa !16
  %37 = call ptr @lpSeek(ptr noundef %36, i64 noundef -1)
  store ptr %37, ptr %3, align 8, !tbaa !35
  call void @llvm.lifetime.start.p0(i64 8, ptr %4) #10
  call void @llvm.lifetime.start.p0(i64 8, ptr %5) #10
  call void @llvm.lifetime.start.p0(i64 8, ptr %6) #10
  call void @llvm.lifetime.start.p0(i64 4, ptr %7) #10
  call void @llvm.lifetime.start.p0(i64 32, ptr %8) #10
  call void @llvm.memset.p0.i64(ptr align 16 %8, i8 0, i64 32, i1 false)
  %38 = load ptr, ptr %3, align 8, !tbaa !35
  %39 = call ptr @lpGetValue(ptr noundef %38, ptr noundef %7, ptr noundef %6)
  store ptr %39, ptr %5, align 8, !tbaa !35
  %40 = load ptr, ptr %5, align 8, !tbaa !35
  %41 = icmp ne ptr %40, null
  br i1 %41, label %47, label %42

42:                                               ; preds = %31
  %43 = getelementptr inbounds [32 x i8], ptr %8, i64 0, i64 0
  %44 = load i64, ptr %6, align 8, !tbaa !57
  %45 = call i32 @ll2string(ptr noundef %43, i64 noundef 32, i64 noundef %44)
  store i32 %45, ptr %7, align 4, !tbaa !14
  %46 = getelementptr inbounds [32 x i8], ptr %8, i64 0, i64 0
  store ptr %46, ptr %4, align 8, !tbaa !35
  br label %63

47:                                               ; preds = %31
  %48 = load ptr, ptr %2, align 8, !tbaa !9
  %49 = getelementptr inbounds nuw %struct.quicklist, ptr %48, i32 0, i32 3
  %50 = load i64, ptr %49, align 8, !tbaa !5
  %51 = icmp eq i64 %50, 1
  br i1 %51, label %52, label %60

52:                                               ; preds = %47
  %53 = load i32, ptr %7, align 4, !tbaa !14
  %54 = zext i32 %53 to i64
  %55 = call noalias ptr @zmalloc(i64 noundef %54) #11
  store ptr %55, ptr %4, align 8, !tbaa !35
  %56 = load ptr, ptr %4, align 8, !tbaa !35
  %57 = load ptr, ptr %5, align 8, !tbaa !35
  %58 = load i32, ptr %7, align 4, !tbaa !14
  %59 = zext i32 %58 to i64
  call void @llvm.memcpy.p0.p0.i64(ptr align 1 %56, ptr align 1 %57, i64 %59, i1 false)
  br label %62

60:                                               ; preds = %47
  %61 = load ptr, ptr %5, align 8, !tbaa !35
  store ptr %61, ptr %4, align 8, !tbaa !35
  br label %62

62:                                               ; preds = %60, %52
  br label %63

63:                                               ; preds = %62, %42
  %64 = load ptr, ptr %2, align 8, !tbaa !9
  %65 = load ptr, ptr %4, align 8, !tbaa !35
  %66 = load i32, ptr %7, align 4, !tbaa !14
  %67 = zext i32 %66 to i64
  %68 = call i32 @quicklistPushHead(ptr noundef %64, ptr noundef %65, i64 noundef %67)
  %69 = load ptr, ptr %2, align 8, !tbaa !9
  %70 = getelementptr inbounds nuw %struct.quicklist, ptr %69, i32 0, i32 3
  %71 = load i64, ptr %70, align 8, !tbaa !5
  %72 = icmp eq i64 %71, 1
  br i1 %72, label %73, label %80

73:                                               ; preds = %63
  %74 = load ptr, ptr %2, align 8, !tbaa !9
  %75 = getelementptr inbounds nuw %struct.quicklist, ptr %74, i32 0, i32 1
  %76 = load ptr, ptr %75, align 8, !tbaa !12
  %77 = getelementptr inbounds nuw %struct.quicklistNode, ptr %76, i32 0, i32 2
  %78 = load ptr, ptr %77, align 8, !tbaa !16
  %79 = call ptr @lpSeek(ptr noundef %78, i64 noundef -1)
  store ptr %79, ptr %3, align 8, !tbaa !35
  br label %80

80:                                               ; preds = %73, %63
  %81 = load ptr, ptr %2, align 8, !tbaa !9
  %82 = load ptr, ptr %2, align 8, !tbaa !9
  %83 = getelementptr inbounds nuw %struct.quicklist, ptr %82, i32 0, i32 1
  %84 = load ptr, ptr %83, align 8, !tbaa !12
  %85 = call i32 @quicklistDelIndex(ptr noundef %81, ptr noundef %84, ptr noundef %3)
  %86 = load ptr, ptr %4, align 8, !tbaa !35
  %87 = getelementptr inbounds [32 x i8], ptr %8, i64 0, i64 0
  %88 = icmp ne ptr %86, %87
  br i1 %88, label %89, label %95

89:                                               ; preds = %80
  %90 = load ptr, ptr %4, align 8, !tbaa !35
  %91 = load ptr, ptr %5, align 8, !tbaa !35
  %92 = icmp ne ptr %90, %91
  br i1 %92, label %93, label %95

93:                                               ; preds = %89
  %94 = load ptr, ptr %4, align 8, !tbaa !35
  call void @zfree(ptr noundef %94)
  br label %95

95:                                               ; preds = %93, %89, %80
  call void @llvm.lifetime.end.p0(i64 32, ptr %8) #10
  call void @llvm.lifetime.end.p0(i64 4, ptr %7) #10
  call void @llvm.lifetime.end.p0(i64 8, ptr %6) #10
  call void @llvm.lifetime.end.p0(i64 8, ptr %5) #10
  call void @llvm.lifetime.end.p0(i64 8, ptr %4) #10
  call void @llvm.lifetime.end.p0(i64 8, ptr %3) #10
  br label %96

96:                                               ; preds = %95, %29, %13
  ret void
}