; Function Attrs: nounwind uwtable
define dso_local void @quicklistRotate(ptr noundef %0) local_unnamed_addr #1 {
  %2 = alloca ptr, align 8
  %3 = alloca i64, align 8
  %4 = alloca i32, align 4
  %5 = alloca [32 x i8], align 16
  %6 = getelementptr inbounds nuw i8, ptr %0, i64 16
  %7 = load i64, ptr %6, align 8, !tbaa !5
  %8 = icmp ult i64 %7, 2
  br i1 %8, label %78, label %9

9:                                                ; preds = %1
  %10 = getelementptr inbounds nuw i8, ptr %0, i64 8
  %11 = load ptr, ptr %10, align 8, !tbaa !16
  %12 = getelementptr inbounds nuw i8, ptr %11, i64 32
  %13 = load i32, ptr %12, align 8
  %14 = and i32 %13, 786432
  %15 = icmp eq i32 %14, 262144
  br i1 %15, label %16, label %22, !prof !24

16:                                               ; preds = %9
  %17 = load ptr, ptr %11, align 8, !tbaa !23
  %18 = load ptr, ptr %0, align 8, !tbaa !16
  store ptr %11, ptr %18, align 8, !tbaa !23
  %19 = getelementptr inbounds nuw i8, ptr %17, i64 8
  store ptr null, ptr %19, align 8, !tbaa !17
  %20 = load ptr, ptr %0, align 8, !tbaa !16
  %21 = getelementptr inbounds nuw i8, ptr %11, i64 8
  store ptr %20, ptr %21, align 8, !tbaa !17
  store ptr null, ptr %11, align 8, !tbaa !23
  store ptr %11, ptr %0, align 8, !tbaa !16
  store ptr %17, ptr %10, align 8, !tbaa !16
  br label %78

22:                                               ; preds = %9
  call void @llvm.lifetime.start.p0(i64 8, ptr nonnull %2) #23
  %23 = getelementptr inbounds nuw i8, ptr %11, i64 16
  %24 = load ptr, ptr %23, align 8, !tbaa !9
  %25 = tail call ptr @lpSeek(ptr noundef %24, i64 noundef -1) #23
  store ptr %25, ptr %2, align 8, !tbaa !32
  call void @llvm.lifetime.start.p0(i64 8, ptr nonnull %3) #23
  call void @llvm.lifetime.start.p0(i64 4, ptr nonnull %4) #23
  call void @llvm.lifetime.start.p0(i64 32, ptr nonnull %5) #23
  call void @llvm.memset.p0.i64(ptr noundef nonnull align 16 dereferenceable(32) %5, i8 0, i64 32, i1 false)
  %26 = call ptr @lpGetValue(ptr noundef %25, ptr noundef nonnull %4, ptr noundef nonnull %3) #23
  %.not = icmp eq ptr %26, null
  br i1 %.not, label %27, label %30

27:                                               ; preds = %22
  %28 = load i64, ptr %3, align 8, !tbaa !53
  %29 = call i32 @ll2string(ptr noundef nonnull %5, i64 noundef 32, i64 noundef %28) #23
  store i32 %29, ptr %4, align 4, !tbaa !28
  br label %39

30:                                               ; preds = %22
  %31 = getelementptr inbounds nuw i8, ptr %0, i64 24
  %32 = load i64, ptr %31, align 8, !tbaa !5
  %33 = icmp eq i64 %32, 1
  %.pre = load i32, ptr %4, align 4, !tbaa !28
  br i1 %33, label %34, label %39

34:                                               ; preds = %30
  %35 = zext i32 %.pre to i64
  %36 = call noalias ptr @zmalloc(i64 noundef %35) #22
  %37 = load i32, ptr %4, align 4, !tbaa !28
  %38 = zext i32 %37 to i64
  call void @llvm.memcpy.p0.p0.i64(ptr align 1 %36, ptr nonnull align 1 %26, i64 %38, i1 false)
  br label %39

39:                                               ; preds = %30, %34, %27
  %40 = phi i32 [ %37, %34 ], [ %29, %27 ], [ %.pre, %30 ]
  %.0 = phi ptr [ %36, %34 ], [ %5, %27 ], [ %26, %30 ]
  %41 = zext i32 %40 to i64
  %42 = call i32 @quicklistPushHead(ptr noundef nonnull %0, ptr noundef %.0, i64 noundef %41)
  %43 = getelementptr inbounds nuw i8, ptr %0, i64 24
  %44 = load i64, ptr %43, align 8, !tbaa !5
  %45 = icmp eq i64 %44, 1
  br i1 %45, label %46, label %51

46:                                               ; preds = %39
  %47 = load ptr, ptr %10, align 8, !tbaa !16
  %48 = getelementptr inbounds nuw i8, ptr %47, i64 16
  %49 = load ptr, ptr %48, align 8, !tbaa !9
  %50 = call ptr @lpSeek(ptr noundef %49, i64 noundef -1) #23
  store ptr %50, ptr %2, align 8, !tbaa !32
  br label %51

51:                                               ; preds = %46, %39
  %52 = phi ptr [ %50, %46 ], [ %25, %39 ]
  %53 = load ptr, ptr %10, align 8, !tbaa !16
  %54 = getelementptr inbounds nuw i8, ptr %53, i64 32
  %55 = load i32, ptr %54, align 8
  %56 = and i32 %55, 786432
  %57 = icmp eq i32 %56, 262144
  br i1 %57, label %58, label %59, !prof !24

58:                                               ; preds = %51
  call void @__quicklistDelNode(ptr noundef nonnull %0, ptr noundef nonnull %53)
  br label %quicklistDelIndex.exit

59:                                               ; preds = %51
  %60 = getelementptr inbounds nuw i8, ptr %53, i64 16
  %61 = load ptr, ptr %60, align 8, !tbaa !9
  %62 = call ptr @lpDelete(ptr noundef %61, ptr noundef %52, ptr noundef nonnull %2) #23
  store ptr %62, ptr %60, align 8, !tbaa !9
  %63 = load i32, ptr %54, align 8
  %64 = add i32 %63, 65535
  %65 = and i32 %64, 65535
  %66 = and i32 %63, -65536
  %67 = or disjoint i32 %65, %66
  store i32 %67, ptr %54, align 8
  %68 = and i32 %63, 65535
  %.not.i = icmp eq i32 %68, 1
  br i1 %.not.i, label %69, label %70

69:                                               ; preds = %59
  call void @__quicklistDelNode(ptr noundef nonnull %0, ptr noundef nonnull %53)
  br label %73

70:                                               ; preds = %59
  %71 = call i64 @lpBytes(ptr noundef %62) #23
  %72 = getelementptr inbounds nuw i8, ptr %53, i64 24
  store i64 %71, ptr %72, align 8, !tbaa !15
  br label %73

73:                                               ; preds = %70, %69
  %74 = load i64, ptr %6, align 8, !tbaa !5
  %75 = add i64 %74, -1
  store i64 %75, ptr %6, align 8, !tbaa !5
  br label %quicklistDelIndex.exit

quicklistDelIndex.exit:                           ; preds = %58, %73
  %.not20 = icmp eq ptr %.0, %5
  %.not21 = icmp eq ptr %.0, %26
  %or.cond = or i1 %.not20, %.not21
  br i1 %or.cond, label %77, label %76

76:                                               ; preds = %quicklistDelIndex.exit
  call void @zfree(ptr noundef %.0) #23
  br label %77

77:                                               ; preds = %76, %quicklistDelIndex.exit
  call void @llvm.lifetime.end.p0(i64 32, ptr nonnull %5) #23
  call void @llvm.lifetime.end.p0(i64 4, ptr nonnull %4) #23
  call void @llvm.lifetime.end.p0(i64 8, ptr nonnull %3) #23
  call void @llvm.lifetime.end.p0(i64 8, ptr nonnull %2) #23
  br label %78

78:                                               ; preds = %1, %77, %16
  ret void
}